; ModuleID = 'source-C-CXX/48/130.cpp'
source_filename = "source-C-CXX/48/130.cpp"
target datalayout = "e-m:e-p270:32:32-p271:32:32-p272:64:64-i64:64-f80:128-n8:16:32:64-S128"
target triple = "x86_64-pc-linux-gnu"

%"class.std::ios_base::Init" = type { i8 }
%"class.std::basic_istream" = type { i32 (...)**, i64, %"class.std::basic_ios" }
%"class.std::basic_ios" = type { %"class.std::ios_base", %"class.std::basic_ostream"*, i8, i8, %"class.std::basic_streambuf"*, %"class.std::ctype"*, %"class.std::num_put"*, %"class.std::num_get"* }
%"class.std::ios_base" = type { i32 (...)**, i64, i64, i32, i32, i32, %"struct.std::ios_base::_Callback_list"*, %"struct.std::ios_base::_Words", [8 x %"struct.std::ios_base::_Words"], i32, %"struct.std::ios_base::_Words"*, %"class.std::locale" }
%"struct.std::ios_base::_Callback_list" = type { %"struct.std::ios_base::_Callback_list"*, void (i32, %"class.std::ios_base"*, i32)*, i32, i32 }
%"struct.std::ios_base::_Words" = type { i8*, i64 }
%"class.std::locale" = type { %"class.std::locale::_Impl"* }
%"class.std::locale::_Impl" = type { i32, %"class.std::locale::facet"**, i64, %"class.std::locale::facet"**, i8** }
%"class.std::locale::facet" = type <{ i32 (...)**, i32, [4 x i8] }>
%"class.std::basic_ostream" = type { i32 (...)**, %"class.std::basic_ios" }
%"class.std::basic_streambuf" = type { i32 (...)**, i8*, i8*, i8*, i8*, i8*, i8*, %"class.std::locale" }
%"class.std::ctype" = type <{ %"class.std::locale::facet.base", [4 x i8], %struct.__locale_struct*, i8, [7 x i8], i32*, i32*, i16*, i8, [256 x i8], [256 x i8], i8, [6 x i8] }>
%"class.std::locale::facet.base" = type <{ i32 (...)**, i32 }>
%struct.__locale_struct = type { [13 x %struct.__locale_data*], i16*, i32*, i32*, [13 x i8*] }
%struct.__locale_data = type opaque
%"class.std::num_put" = type { %"class.std::locale::facet.base", [4 x i8] }
%"class.std::num_get" = type { %"class.std::locale::facet.base", [4 x i8] }

@_ZStL8__ioinit = internal global %"class.std::ios_base::Init" zeroinitializer, align 1
@__dso_handle = external hidden global i8
@_ZSt3cin = external global %"class.std::basic_istream", align 8
@_ZSt4cout = external global %"class.std::basic_ostream", align 8
@llvm.global_ctors = appending global [1 x { i32, void ()*, i8* }] [{ i32, void ()*, i8* } { i32 65535, void ()* @_GLOBAL__sub_I_130.cpp, i8* null }]

declare void @_ZNSt8ios_base4InitC1Ev(%"class.std::ios_base::Init"* nonnull align 1 dereferenceable(1)) unnamed_addr #0

; Function Attrs: nounwind
declare void @_ZNSt8ios_base4InitD1Ev(%"class.std::ios_base::Init"* nonnull align 1 dereferenceable(1)) unnamed_addr #1

; Function Attrs: nofree nounwind
declare i32 @__cxa_atexit(void (i8*)*, i8*, i8*) local_unnamed_addr #2

; Function Attrs: mustprogress norecurse sspstrong uwtable
define dso_local i32 @main() local_unnamed_addr #3 {
  %1 = alloca i8, align 1
  %2 = alloca i8, align 1
  %3 = alloca [500 x i8], align 16
  %4 = getelementptr inbounds [500 x i8], [500 x i8]* %3, i64 0, i64 0
  call void @llvm.lifetime.start.p0i8(i64 500, i8* nonnull %4) #8
  call void @_ZSt17__istream_extractRSiPcl(%"class.std::basic_istream"* nonnull align 8 dereferenceable(16) @_ZSt3cin, i8* nonnull %4, i64 500)
  %5 = call i64 @strlen(i8* noundef nonnull %4) #9
  %6 = icmp ult i64 %5, 2
  br i1 %6, label %45, label %7

7:                                                ; preds = %0, %42
  %8 = phi i64 [ %43, %42 ], [ 2, %0 ]
  br label %9

9:                                                ; preds = %7, %37
  %10 = phi i64 [ 0, %7 ], [ %38, %37 ]
  %11 = add nuw nsw i64 %10, %8
  br label %14

12:                                               ; preds = %14
  %13 = icmp eq i64 %26, %8
  br i1 %13, label %27, label %14, !llvm.loop !5

14:                                               ; preds = %12, %9
  %15 = phi i64 [ 0, %9 ], [ %26, %12 ]
  %16 = add nuw nsw i64 %15, %10
  %17 = getelementptr inbounds [500 x i8], [500 x i8]* %3, i64 0, i64 %16
  %18 = load i8, i8* %17, align 1, !tbaa !7
  %19 = xor i64 %15, -1
  %20 = add i64 %11, %19
  %21 = shl i64 %20, 32
  %22 = ashr exact i64 %21, 32
  %23 = getelementptr inbounds [500 x i8], [500 x i8]* %3, i64 0, i64 %22
  %24 = load i8, i8* %23, align 1, !tbaa !7
  %25 = icmp eq i8 %18, %24
  %26 = add nuw nsw i64 %15, 1
  br i1 %25, label %12, label %37

27:                                               ; preds = %12, %27
  %28 = phi i64 [ %33, %27 ], [ 0, %12 ]
  %29 = add nuw nsw i64 %28, %10
  %30 = getelementptr inbounds [500 x i8], [500 x i8]* %3, i64 0, i64 %29
  %31 = load i8, i8* %30, align 1, !tbaa !7
  call void @llvm.lifetime.start.p0i8(i64 1, i8* nonnull %2)
  store i8 %31, i8* %2, align 1, !tbaa !7
  %32 = call nonnull align 8 dereferenceable(8) %"class.std::basic_ostream"* @_ZSt16__ostream_insertIcSt11char_traitsIcEERSt13basic_ostreamIT_T0_ES6_PKS3_l(%"class.std::basic_ostream"* nonnull align 8 dereferenceable(8) @_ZSt4cout, i8* nonnull %2, i64 1)
  call void @llvm.lifetime.end.p0i8(i64 1, i8* nonnull %2)
  %33 = add nuw nsw i64 %28, 1
  %34 = icmp eq i64 %33, %8
  br i1 %34, label %35, label %27, !llvm.loop !10

35:                                               ; preds = %27
  call void @llvm.lifetime.start.p0i8(i64 1, i8* nonnull %1)
  store i8 10, i8* %1, align 1, !tbaa !7
  %36 = call nonnull align 8 dereferenceable(8) %"class.std::basic_ostream"* @_ZSt16__ostream_insertIcSt11char_traitsIcEERSt13basic_ostreamIT_T0_ES6_PKS3_l(%"class.std::basic_ostream"* nonnull align 8 dereferenceable(8) @_ZSt4cout, i8* nonnull %1, i64 1)
  call void @llvm.lifetime.end.p0i8(i64 1, i8* nonnull %1)
  br label %37

37:                                               ; preds = %14, %35
  %38 = add nuw i64 %10, 1
  %39 = call i64 @strlen(i8* noundef nonnull %4) #9
  %40 = sub i64 %39, %8
  %41 = icmp ugt i64 %40, %10
  br i1 %41, label %9, label %42, !llvm.loop !11

42:                                               ; preds = %37
  %43 = add nuw i64 %8, 1
  %44 = icmp ugt i64 %39, %8
  br i1 %44, label %7, label %45, !llvm.loop !12

45:                                               ; preds = %42, %0
  call void @llvm.lifetime.end.p0i8(i64 500, i8* nonnull %4) #8
  ret i32 0
}

; Function Attrs: argmemonly mustprogress nofree nosync nounwind willreturn
declare void @llvm.lifetime.start.p0i8(i64 immarg, i8* nocapture) #4

; Function Attrs: argmemonly mustprogress nofree nounwind readonly willreturn
declare i64 @strlen(i8* nocapture) local_unnamed_addr #5

; Function Attrs: mustprogress sspstrong uwtable
define dso_local void @_Z5judgePcii(i8* nocapture readonly %0, i32 %1, i32 %2) local_unnamed_addr #6 {
  %4 = alloca i8, align 1
  %5 = alloca i8, align 1
  %6 = add nsw i32 %2, %1
  %7 = icmp sgt i32 %2, 0
  br i1 %7, label %8, label %38

8:                                                ; preds = %3
  %9 = sext i32 %1 to i64
  %10 = zext i32 %2 to i64
  br label %17

11:                                               ; preds = %17
  %12 = icmp eq i64 %29, %10
  br i1 %12, label %13, label %17, !llvm.loop !5

13:                                               ; preds = %11
  br i1 %7, label %14, label %38

14:                                               ; preds = %13
  %15 = sext i32 %1 to i64
  %16 = zext i32 %2 to i64
  br label %30

17:                                               ; preds = %8, %11
  %18 = phi i64 [ 0, %8 ], [ %29, %11 ]
  %19 = add nsw i64 %18, %9
  %20 = getelementptr inbounds i8, i8* %0, i64 %19
  %21 = load i8, i8* %20, align 1, !tbaa !7
  %22 = trunc i64 %18 to i32
  %23 = xor i32 %22, -1
  %24 = add i32 %6, %23
  %25 = sext i32 %24 to i64
  %26 = getelementptr inbounds i8, i8* %0, i64 %25
  %27 = load i8, i8* %26, align 1, !tbaa !7
  %28 = icmp eq i8 %21, %27
  %29 = add nuw nsw i64 %18, 1
  br i1 %28, label %11, label %40

30:                                               ; preds = %14, %30
  %31 = phi i64 [ 0, %14 ], [ %36, %30 ]
  %32 = add nsw i64 %31, %15
  %33 = getelementptr inbounds i8, i8* %0, i64 %32
  %34 = load i8, i8* %33, align 1, !tbaa !7
  call void @llvm.lifetime.start.p0i8(i64 1, i8* nonnull %5)
  store i8 %34, i8* %5, align 1, !tbaa !7
  %35 = call nonnull align 8 dereferenceable(8) %"class.std::basic_ostream"* @_ZSt16__ostream_insertIcSt11char_traitsIcEERSt13basic_ostreamIT_T0_ES6_PKS3_l(%"class.std::basic_ostream"* nonnull align 8 dereferenceable(8) @_ZSt4cout, i8* nonnull %5, i64 1)
  call void @llvm.lifetime.end.p0i8(i64 1, i8* nonnull %5)
  %36 = add nuw nsw i64 %31, 1
  %37 = icmp eq i64 %36, %16
  br i1 %37, label %38, label %30, !llvm.loop !10

38:                                               ; preds = %30, %3, %13
  call void @llvm.lifetime.start.p0i8(i64 1, i8* nonnull %4)
  store i8 10, i8* %4, align 1, !tbaa !7
  %39 = call nonnull align 8 dereferenceable(8) %"class.std::basic_ostream"* @_ZSt16__ostream_insertIcSt11char_traitsIcEERSt13basic_ostreamIT_T0_ES6_PKS3_l(%"class.std::basic_ostream"* nonnull align 8 dereferenceable(8) @_ZSt4cout, i8* nonnull %4, i64 1)
  call void @llvm.lifetime.end.p0i8(i64 1, i8* nonnull %4)
  br label %40

40:                                               ; preds = %17, %38
  ret void
}

; Function Attrs: argmemonly mustprogress nofree nosync nounwind willreturn
declare void @llvm.lifetime.end.p0i8(i64 immarg, i8* nocapture) #4

declare void @_ZSt17__istream_extractRSiPcl(%"class.std::basic_istream"* nonnull align 8 dereferenceable(16), i8*, i64) local_unnamed_addr #0

declare nonnull align 8 dereferenceable(8) %"class.std::basic_ostream"* @_ZSt16__ostream_insertIcSt11char_traitsIcEERSt13basic_ostreamIT_T0_ES6_PKS3_l(%"class.std::basic_ostream"* nonnull align 8 dereferenceable(8), i8*, i64) local_unnamed_addr #0

; Function Attrs: sspstrong uwtable
define internal void @_GLOBAL__sub_I_130.cpp() #7 section ".text.startup" {
  tail call void @_ZNSt8ios_base4InitC1Ev(%"class.std::ios_base::Init"* nonnull align 1 dereferenceable(1) @_ZStL8__ioinit)
  %1 = tail call i32 @__cxa_atexit(void (i8*)* bitcast (void (%"class.std::ios_base::Init"*)* @_ZNSt8ios_base4InitD1Ev to void (i8*)*), i8* getelementptr inbounds (%"class.std::ios_base::Init", %"class.std::ios_base::Init"* @_ZStL8__ioinit, i64 0, i32 0), i8* nonnull @__dso_handle) #8
  ret void
}


!llvm.module.flags = !{!0, !1, !2, !3}
!llvm.ident = !{!4}

!0 = !{i32 1, !"wchar_size", i32 4}
!1 = !{i32 7, !"PIC Level", i32 2}
!2 = !{i32 7, !"PIE Level", i32 2}
!3 = !{i32 7, !"uwtable", i32 1}
!4 = !{!"clang version 13.0.0"}
!5 = distinct !{!5, !6}
!6 = !{!"llvm.loop.mustprogress"}
!7 = !{!8, !8, i64 0}
!8 = !{!"omnipotent char", !9, i64 0}
!9 = !{!"Simple C++ TBAA"}
!10 = distinct !{!10, !6}
!11 = distinct !{!11, !6}
!12 = distinct !{!12, !6}
